target datalayout = "e-m:e-p270:32:32-p271:32:32-p272:64:64-i64:64-i128:128-f80:128-n8:16:32:64-S128"
target triple = "x86_64-pc-linux-gnu"

%struct._packet_info = type { ptr, ptr, i32, i32, %struct.nstime_t, %struct.nstime_t, %struct.nstime_t, i8, ptr, ptr, ptr, ptr, %struct._address, %struct._address, %struct._address, %struct._address, %struct._address, %struct._address, i32, ptr, i8, [3 x i8], %struct.anon.1, i32, i32, i32, i32, ptr, i8, ptr, ptr, i16, i16, i32, i32, i16, i32, i32, ptr, ptr, ptr, i8, i8, i16, i16, i16, i32, i16, i16, ptr, ptr, ptr, ptr, ptr, i32, i32 }
%struct.nstime_t = type { i64, i32 }
%struct._address = type { i32, i32, ptr, ptr }
%struct.anon.1 = type { i8, [3 x i8] }
%struct._someip_messages_tap = type { i16, i16, i8, i8 }

@data_someip_services = internal global ptr null, align 8
@data_someip_methods = internal global ptr null, align 8
@someip_messages_stats_tree_packet.tmp_srv_str = internal global [128 x i8] zeroinitializer, align 16
@someip_messages_stats_tree_packet.tmp_meth_str = internal global [128 x i8] zeroinitializer, align 16
@someip_messages_stats_tree_packet.tmp_addr_str = internal global [128 x i8] zeroinitializer, align 16
@.str.420 = private unnamed_addr constant [29 x i8] c"%s:%u: failed assertion \22%s\22\00", align 1
@.str.421 = private unnamed_addr constant [32 x i8] c"epan/dissectors/packet-someip.c\00", align 1
@.str.422 = private unnamed_addr constant [2 x i8] c"p\00", align 1
@.str.423 = private unnamed_addr constant [8 x i8] c"%s (%s)\00", align 1
@st_str_ip_src = internal global ptr @.str.429, align 8
@st_node_ip_src = internal global i32 -1, align 4
@st_str_ip_dst = internal global ptr @.str.430, align 8
@st_node_ip_dst = internal global i32 -1, align 4
@.str.424 = private unnamed_addr constant [15 x i8] c"Service 0x%04x\00", align 1
@.str.425 = private unnamed_addr constant [20 x i8] c"Service 0x%04x (%s)\00", align 1
@.str.426 = private unnamed_addr constant [17 x i8] c"Method 0x%04x %s\00", align 1
@.str.427 = private unnamed_addr constant [21 x i8] c"Message-Type: 0x%02x\00", align 1
@.str.428 = private unnamed_addr constant [22 x i8] c"Method 0x%04x (%s) %s\00", align 1

; Function Attrs: null_pointer_is_valid sspstrong uwtable
define internal ptr @someip_lookup_method_name(i16 noundef zeroext %0, i16 noundef zeroext %1) #0 {
  %3 = alloca ptr, align 8
  %4 = alloca i16, align 2
  %5 = alloca i16, align 2
  store i16 %0, ptr %4, align 2
  store i16 %1, ptr %5, align 2
  %6 = load ptr, ptr @data_someip_methods, align 8
  %7 = icmp eq ptr %6, null
  br i1 %7, label %8, label %9

8:                                                ; preds = %2
  store ptr null, ptr %3, align 8
  br label %20

9:                                                ; preds = %2
  %10 = load ptr, ptr @data_someip_methods, align 8
  %11 = load i16, ptr %4, align 2
  %12 = zext i16 %11 to i32
  %13 = shl i32 %12, 16
  %14 = load i16, ptr %5, align 2
  %15 = zext i16 %14 to i32
  %16 = or i32 %13, %15
  %17 = zext i32 %16 to i64
  %18 = inttoptr i64 %17 to ptr
  %19 = call ptr @g_hash_table_lookup(ptr noundef %10, ptr noundef %18)
  store ptr %19, ptr %3, align 8
  br label %20

20:                                               ; preds = %9, %8
  %21 = load ptr, ptr %3, align 8
  ret ptr %21
}

; Function Attrs: null_pointer_is_valid sspstrong uwtable
define hidden ptr @someip_lookup_service_name(i16 noundef zeroext %0) #0 {
  %2 = alloca ptr, align 8
  %3 = alloca i16, align 2
  store i16 %0, ptr %3, align 2
  %4 = load ptr, ptr @data_someip_services, align 8
  %5 = icmp eq ptr %4, null
  br i1 %5, label %6, label %7

6:                                                ; preds = %1
  store ptr null, ptr %2, align 8
  br label %13

7:                                                ; preds = %1
  %8 = load ptr, ptr @data_someip_services, align 8
  %9 = load i16, ptr %3, align 2
  %10 = zext i16 %9 to i64
  %11 = inttoptr i64 %10 to ptr
  %12 = call ptr @g_hash_table_lookup(ptr noundef %8, ptr noundef %11)
  store ptr %12, ptr %2, align 8
  br label %13

13:                                               ; preds = %7, %6
  %14 = load ptr, ptr %2, align 8
  ret ptr %14
}

; Function Attrs: null_pointer_is_valid sspstrong uwtable
define internal i32 @someip_messages_stats_tree_packet(ptr noundef %0, ptr noundef %1, ptr noundef %2, ptr noundef %3, i32 noundef %4) #0 {
  %6 = alloca ptr, align 8
  %7 = alloca ptr, align 8
  %8 = alloca ptr, align 8
  %9 = alloca ptr, align 8
  %10 = alloca i32, align 4
  %11 = alloca i32, align 4
  %12 = alloca ptr, align 8
  %13 = alloca i32, align 4
  %14 = alloca i32, align 4
  %15 = alloca ptr, align 8
  %16 = alloca ptr, align 8
  store ptr %0, ptr %6, align 8
  store ptr %1, ptr %7, align 8
  store ptr %2, ptr %8, align 8
  store ptr %3, ptr %9, align 8
  store i32 %4, ptr %10, align 4
  call void @llvm.lifetime.start.p0(i64 4, ptr %11) #19
  %17 = load ptr, ptr %9, align 8
  %18 = icmp ne ptr %17, null
  br i1 %18, label %19, label %20

19:                                               ; preds = %5
  br label %22

20:                                               ; preds = %5
  call void (ptr, ...) @proto_report_dissector_bug(ptr noundef @.str.420, ptr noundef @.str.421, i32 noundef 2563, ptr noundef @.str.422) #22
  unreachable

21:                                               ; No predecessors!
  br label %22

22:                                               ; preds = %21, %19
  call void @llvm.lifetime.start.p0(i64 8, ptr %12) #19
  %23 = load ptr, ptr %9, align 8
  store ptr %23, ptr %12, align 8
  %24 = load ptr, ptr %7, align 8
  %25 = getelementptr inbounds nuw %struct._packet_info, ptr %24, i32 0, i32 51
  %26 = load ptr, ptr %25, align 8
  %27 = load ptr, ptr %7, align 8
  %28 = getelementptr inbounds nuw %struct._packet_info, ptr %27, i32 0, i32 14
  %29 = call ptr @address_to_str(ptr noundef %26, ptr noundef %28)
  %30 = load ptr, ptr %7, align 8
  %31 = getelementptr inbounds nuw %struct._packet_info, ptr %30, i32 0, i32 14
  %32 = call ptr @address_to_name(ptr noundef %31)
  %33 = call i32 (ptr, i64, i32, i64, ptr, ...) @__snprintf_chk(ptr noundef @someip_messages_stats_tree_packet.tmp_addr_str, i64 noundef 127, i32 noundef 2, i64 noundef 128, ptr noundef @.str.423, ptr noundef %29, ptr noundef %32)
  %34 = load ptr, ptr %6, align 8
  %35 = load ptr, ptr @st_str_ip_src, align 8
  %36 = call i32 @stats_tree_manip_node_int(i32 noundef 0, ptr noundef %34, ptr noundef %35, i32 noundef 0, i1 noundef zeroext false, i32 noundef 1)
  call void @llvm.lifetime.start.p0(i64 4, ptr %13) #19
  %37 = load ptr, ptr %6, align 8
  %38 = load i32, ptr @st_node_ip_src, align 4
  %39 = call i32 @stats_tree_manip_node_int(i32 noundef 0, ptr noundef %37, ptr noundef @someip_messages_stats_tree_packet.tmp_addr_str, i32 noundef %38, i1 noundef zeroext true, i32 noundef 1)
  store i32 %39, ptr %13, align 4
  %40 = load ptr, ptr %7, align 8
  %41 = getelementptr inbounds nuw %struct._packet_info, ptr %40, i32 0, i32 51
  %42 = load ptr, ptr %41, align 8
  %43 = load ptr, ptr %7, align 8
  %44 = getelementptr inbounds nuw %struct._packet_info, ptr %43, i32 0, i32 15
  %45 = call ptr @address_to_str(ptr noundef %42, ptr noundef %44)
  %46 = load ptr, ptr %7, align 8
  %47 = getelementptr inbounds nuw %struct._packet_info, ptr %46, i32 0, i32 15
  %48 = call ptr @address_to_name(ptr noundef %47)
  %49 = call i32 (ptr, i64, i32, i64, ptr, ...) @__snprintf_chk(ptr noundef @someip_messages_stats_tree_packet.tmp_addr_str, i64 noundef 127, i32 noundef 2, i64 noundef 128, ptr noundef @.str.423, ptr noundef %45, ptr noundef %48)
  %50 = load ptr, ptr %6, align 8
  %51 = load ptr, ptr @st_str_ip_dst, align 8
  %52 = call i32 @stats_tree_manip_node_int(i32 noundef 0, ptr noundef %50, ptr noundef %51, i32 noundef 0, i1 noundef zeroext false, i32 noundef 1)
  call void @llvm.lifetime.start.p0(i64 4, ptr %14) #19
  %53 = load ptr, ptr %6, align 8
  %54 = load i32, ptr @st_node_ip_dst, align 4
  %55 = call i32 @stats_tree_manip_node_int(i32 noundef 0, ptr noundef %53, ptr noundef @someip_messages_stats_tree_packet.tmp_addr_str, i32 noundef %54, i1 noundef zeroext true, i32 noundef 1)
  store i32 %55, ptr %14, align 4
  call void @llvm.lifetime.start.p0(i64 8, ptr %15) #19
  %56 = load ptr, ptr %12, align 8
  %57 = getelementptr inbounds nuw %struct._someip_messages_tap, ptr %56, i32 0, i32 0
  %58 = load i16, ptr %57, align 2
  %59 = call ptr @someip_lookup_service_name(i16 noundef zeroext %58)
  store ptr %59, ptr %15, align 8
  %60 = load ptr, ptr %15, align 8
  %61 = icmp eq ptr %60, null
  br i1 %61, label %62, label %68

62:                                               ; preds = %22
  %63 = load ptr, ptr %12, align 8
  %64 = getelementptr inbounds nuw %struct._someip_messages_tap, ptr %63, i32 0, i32 0
  %65 = load i16, ptr %64, align 2
  %66 = zext i16 %65 to i32
  %67 = call i32 (ptr, i64, i32, i64, ptr, ...) @__snprintf_chk(ptr noundef @someip_messages_stats_tree_packet.tmp_srv_str, i64 noundef 127, i32 noundef 2, i64 noundef 128, ptr noundef @.str.424, i32 noundef %66)
  br label %75

68:                                               ; preds = %22
  %69 = load ptr, ptr %12, align 8
  %70 = getelementptr inbounds nuw %struct._someip_messages_tap, ptr %69, i32 0, i32 0
  %71 = load i16, ptr %70, align 2
  %72 = zext i16 %71 to i32
  %73 = load ptr, ptr %15, align 8
  %74 = call i32 (ptr, i64, i32, i64, ptr, ...) @__snprintf_chk(ptr noundef @someip_messages_stats_tree_packet.tmp_srv_str, i64 noundef 127, i32 noundef 2, i64 noundef 128, ptr noundef @.str.425, i32 noundef %72, ptr noundef %73)
  br label %75

75:                                               ; preds = %68, %62
  call void @llvm.lifetime.start.p0(i64 8, ptr %16) #19
  %76 = load ptr, ptr %12, align 8
  %77 = getelementptr inbounds nuw %struct._someip_messages_tap, ptr %76, i32 0, i32 0
  %78 = load i16, ptr %77, align 2
  %79 = load ptr, ptr %12, align 8
  %80 = getelementptr inbounds nuw %struct._someip_messages_tap, ptr %79, i32 0, i32 1
  %81 = load i16, ptr %80, align 2
  %82 = call ptr @someip_lookup_method_name(i16 noundef zeroext %78, i16 noundef zeroext %81)
  store ptr %82, ptr %16, align 8
  %83 = load ptr, ptr %16, align 8
  %84 = icmp eq ptr %83, null
  br i1 %84, label %85, label %96

85:                                               ; preds = %75
  %86 = load ptr, ptr %12, align 8
  %87 = getelementptr inbounds nuw %struct._someip_messages_tap, ptr %86, i32 0, i32 1
  %88 = load i16, ptr %87, align 2
  %89 = zext i16 %88 to i32
  %90 = load ptr, ptr %12, align 8
  %91 = getelementptr inbounds nuw %struct._someip_messages_tap, ptr %90, i32 0, i32 3
  %92 = load i8, ptr %91, align 1
  %93 = zext i8 %92 to i32
  %94 = call ptr @val_to_str(i32 noundef %93, ptr noundef @someip_msg_type, ptr noundef @.str.427)
  %95 = call i32 (ptr, i64, i32, i64, ptr, ...) @__snprintf_chk(ptr noundef @someip_messages_stats_tree_packet.tmp_meth_str, i64 noundef 127, i32 noundef 2, i64 noundef 128, ptr noundef @.str.426, i32 noundef %89, ptr noundef %94)
  br label %108

96:                                               ; preds = %75
  %97 = load ptr, ptr %12, align 8
  %98 = getelementptr inbounds nuw %struct._someip_messages_tap, ptr %97, i32 0, i32 1
  %99 = load i16, ptr %98, align 2
  %100 = zext i16 %99 to i32
  %101 = load ptr, ptr %16, align 8
  %102 = load ptr, ptr %12, align 8
  %103 = getelementptr inbounds nuw %struct._someip_messages_tap, ptr %102, i32 0, i32 3
  %104 = load i8, ptr %103, align 1
  %105 = zext i8 %104 to i32
  %106 = call ptr @val_to_str(i32 noundef %105, ptr noundef @someip_msg_type, ptr noundef @.str.427)
  %107 = call i32 (ptr, i64, i32, i64, ptr, ...) @__snprintf_chk(ptr noundef @someip_messages_stats_tree_packet.tmp_meth_str, i64 noundef 127, i32 noundef 2, i64 noundef 128, ptr noundef @.str.428, i32 noundef %100, ptr noundef %101, ptr noundef %106)
  br label %108

108:                                              ; preds = %96, %85
  %109 = load ptr, ptr %6, align 8
  %110 = load i32, ptr %13, align 4
  %111 = call i32 @stats_tree_manip_node_int(i32 noundef 0, ptr noundef %109, ptr noundef @someip_messages_stats_tree_packet.tmp_srv_str, i32 noundef %110, i1 noundef zeroext true, i32 noundef 1)
  store i32 %111, ptr %11, align 4
  %112 = load ptr, ptr %6, align 8
  %113 = load i32, ptr %11, align 4
  %114 = call i32 @stats_tree_manip_node_int(i32 noundef 0, ptr noundef %112, ptr noundef @someip_messages_stats_tree_packet.tmp_meth_str, i32 noundef %113, i1 noundef zeroext false, i32 noundef 1)
  %115 = load ptr, ptr %6, align 8
  %116 = load i32, ptr %14, align 4
  %117 = call i32 @stats_tree_manip_node_int(i32 noundef 0, ptr noundef %115, ptr noundef @someip_messages_stats_tree_packet.tmp_srv_str, i32 noundef %116, i1 noundef zeroext true, i32 noundef 1)
  store i32 %117, ptr %11, align 4
  %118 = load ptr, ptr %6, align 8
  %119 = load i32, ptr %11, align 4
  %120 = call i32 @stats_tree_manip_node_int(i32 noundef 0, ptr noundef %118, ptr noundef @someip_messages_stats_tree_packet.tmp_meth_str, i32 noundef %119, i1 noundef zeroext false, i32 noundef 1)
  call void @llvm.lifetime.end.p0(i64 8, ptr %16) #19
  call void @llvm.lifetime.end.p0(i64 8, ptr %15) #19
  call void @llvm.lifetime.end.p0(i64 4, ptr %14) #19
  call void @llvm.lifetime.end.p0(i64 4, ptr %13) #19
  call void @llvm.lifetime.end.p0(i64 8, ptr %12) #19
  call void @llvm.lifetime.end.p0(i64 4, ptr %11) #19
  ret i32 1
}