; Function Attrs: null_pointer_is_valid sspstrong uwtable
define internal noundef i32 @someip_messages_stats_tree_packet(ptr noundef %0, ptr noundef %1, ptr readnone captures(none) %2, ptr noundef readonly captures(address_is_null) %3, i32 %4) #0 {
  %.not = icmp eq ptr %3, null
  br i1 %.not, label %6, label %7

6:                                                ; preds = %5
  tail call void (ptr, ...) @proto_report_dissector_bug(ptr noundef nonnull @.str.420, ptr noundef nonnull @.str.421, i32 noundef 2563, ptr noundef nonnull @.str.422) #23
  unreachable

7:                                                ; preds = %5
  %8 = getelementptr inbounds nuw i8, ptr %1, i64 408
  %9 = load ptr, ptr %8, align 8
  %10 = getelementptr inbounds nuw i8, ptr %1, i64 160
  %11 = tail call ptr @address_to_str(ptr noundef %9, ptr noundef nonnull %10)
  %12 = tail call ptr @address_to_name(ptr noundef nonnull %10)
  %13 = tail call i32 (ptr, i64, i32, i64, ptr, ...) @__snprintf_chk(ptr noundef nonnull @someip_messages_stats_tree_packet.tmp_addr_str, i64 noundef 127, i32 noundef 2, i64 noundef 128, ptr noundef nonnull @.str.423, ptr noundef %11, ptr noundef %12)
  %14 = tail call i32 @stats_tree_manip_node_int(i32 noundef 0, ptr noundef %0, ptr noundef nonnull @.str.429, i32 noundef 0, i1 noundef zeroext false, i32 noundef 1)
  %15 = load i32, ptr @st_node_ip_src, align 4
  %16 = tail call i32 @stats_tree_manip_node_int(i32 noundef 0, ptr noundef %0, ptr noundef nonnull @someip_messages_stats_tree_packet.tmp_addr_str, i32 noundef %15, i1 noundef zeroext true, i32 noundef 1)
  %17 = load ptr, ptr %8, align 8
  %18 = getelementptr inbounds nuw i8, ptr %1, i64 184
  %19 = tail call ptr @address_to_str(ptr noundef %17, ptr noundef nonnull %18)
  %20 = tail call ptr @address_to_name(ptr noundef nonnull %18)
  %21 = tail call i32 (ptr, i64, i32, i64, ptr, ...) @__snprintf_chk(ptr noundef nonnull @someip_messages_stats_tree_packet.tmp_addr_str, i64 noundef 127, i32 noundef 2, i64 noundef 128, ptr noundef nonnull @.str.423, ptr noundef %19, ptr noundef %20)
  %22 = tail call i32 @stats_tree_manip_node_int(i32 noundef 0, ptr noundef %0, ptr noundef nonnull @.str.430, i32 noundef 0, i1 noundef zeroext false, i32 noundef 1)
  %23 = load i32, ptr @st_node_ip_dst, align 4
  %24 = tail call i32 @stats_tree_manip_node_int(i32 noundef 0, ptr noundef %0, ptr noundef nonnull @someip_messages_stats_tree_packet.tmp_addr_str, i32 noundef %23, i1 noundef zeroext true, i32 noundef 1)
  %25 = load ptr, ptr @data_someip_services, align 8
  %26 = icmp eq ptr %25, null
  br i1 %26, label %someip_lookup_service_name.exit.thread, label %someip_lookup_service_name.exit

someip_lookup_service_name.exit:                  ; preds = %7
  %27 = load i16, ptr %3, align 2
  %28 = zext i16 %27 to i64
  %29 = inttoptr i64 %28 to ptr
  %30 = tail call ptr @g_hash_table_lookup(ptr noundef nonnull %25, ptr noundef %29)
  %31 = icmp eq ptr %30, null
  br i1 %31, label %someip_lookup_service_name.exit.thread, label %35

someip_lookup_service_name.exit.thread:           ; preds = %7, %someip_lookup_service_name.exit
  %32 = load i16, ptr %3, align 2
  %33 = zext i16 %32 to i32
  %34 = tail call i32 (ptr, i64, i32, i64, ptr, ...) @__snprintf_chk(ptr noundef nonnull @someip_messages_stats_tree_packet.tmp_srv_str, i64 noundef 127, i32 noundef 2, i64 noundef 128, ptr noundef nonnull @.str.424, i32 noundef %33)
  br label %39

35:                                               ; preds = %someip_lookup_service_name.exit
  %36 = load i16, ptr %3, align 2
  %37 = zext i16 %36 to i32
  %38 = tail call i32 (ptr, i64, i32, i64, ptr, ...) @__snprintf_chk(ptr noundef nonnull @someip_messages_stats_tree_packet.tmp_srv_str, i64 noundef 127, i32 noundef 2, i64 noundef 128, ptr noundef nonnull @.str.425, i32 noundef %37, ptr noundef nonnull %30)
  br label %39

39:                                               ; preds = %35, %someip_lookup_service_name.exit.thread
  %40 = getelementptr inbounds nuw i8, ptr %3, i64 2
  %41 = load ptr, ptr @data_someip_methods, align 8
  %42 = icmp eq ptr %41, null
  br i1 %42, label %someip_lookup_method_name.exit.thread, label %someip_lookup_method_name.exit

someip_lookup_method_name.exit:                   ; preds = %39
  %43 = load i16, ptr %40, align 2
  %44 = load i16, ptr %3, align 2
  %45 = zext i16 %44 to i64
  %46 = shl nuw nsw i64 %45, 16
  %47 = zext i16 %43 to i64
  %48 = or disjoint i64 %46, %47
  %49 = inttoptr i64 %48 to ptr
  %50 = tail call ptr @g_hash_table_lookup(ptr noundef nonnull %41, ptr noundef %49)
  %51 = icmp eq ptr %50, null
  br i1 %51, label %someip_lookup_method_name.exit.thread, label %59

someip_lookup_method_name.exit.thread:            ; preds = %39, %someip_lookup_method_name.exit
  %52 = load i16, ptr %40, align 2
  %53 = zext i16 %52 to i32
  %54 = getelementptr inbounds nuw i8, ptr %3, i64 5
  %55 = load i8, ptr %54, align 1
  %56 = zext i8 %55 to i32
  %57 = tail call ptr @val_to_str(i32 noundef %56, ptr noundef nonnull @someip_msg_type, ptr noundef nonnull @.str.427)
  %58 = tail call i32 (ptr, i64, i32, i64, ptr, ...) @__snprintf_chk(ptr noundef nonnull @someip_messages_stats_tree_packet.tmp_meth_str, i64 noundef 127, i32 noundef 2, i64 noundef 128, ptr noundef nonnull @.str.426, i32 noundef %53, ptr noundef %57)
  br label %67

59:                                               ; preds = %someip_lookup_method_name.exit
  %60 = load i16, ptr %40, align 2
  %61 = zext i16 %60 to i32
  %62 = getelementptr inbounds nuw i8, ptr %3, i64 5
  %63 = load i8, ptr %62, align 1
  %64 = zext i8 %63 to i32
  %65 = tail call ptr @val_to_str(i32 noundef %64, ptr noundef nonnull @someip_msg_type, ptr noundef nonnull @.str.427)
  %66 = tail call i32 (ptr, i64, i32, i64, ptr, ...) @__snprintf_chk(ptr noundef nonnull @someip_messages_stats_tree_packet.tmp_meth_str, i64 noundef 127, i32 noundef 2, i64 noundef 128, ptr noundef nonnull @.str.428, i32 noundef %61, ptr noundef nonnull %50, ptr noundef %65)
  br label %67

67:                                               ; preds = %59, %someip_lookup_method_name.exit.thread
  %68 = tail call i32 @stats_tree_manip_node_int(i32 noundef 0, ptr noundef %0, ptr noundef nonnull @someip_messages_stats_tree_packet.tmp_srv_str, i32 noundef %16, i1 noundef zeroext true, i32 noundef 1)
  %69 = tail call i32 @stats_tree_manip_node_int(i32 noundef 0, ptr noundef %0, ptr noundef nonnull @someip_messages_stats_tree_packet.tmp_meth_str, i32 noundef %68, i1 noundef zeroext false, i32 noundef 1)
  %70 = tail call i32 @stats_tree_manip_node_int(i32 noundef 0, ptr noundef %0, ptr noundef nonnull @someip_messages_stats_tree_packet.tmp_srv_str, i32 noundef %24, i1 noundef zeroext true, i32 noundef 1)
  %71 = tail call i32 @stats_tree_manip_node_int(i32 noundef 0, ptr noundef %0, ptr noundef nonnull @someip_messages_stats_tree_packet.tmp_meth_str, i32 noundef %70, i1 noundef zeroext false, i32 noundef 1)
  ret i32 1
}